; Function Attrs: null_pointer_is_valid sspstrong uwtable
define internal noundef ptr @protobuf_search_paths_copy_cb(ptr noundef returned %0, ptr noundef readonly captures(none) %1, i64 %2) #0 {
  tail call void @llvm.memcpy.p0.p0.i64(ptr noundef align 1 dereferenceable(16) %0, ptr noundef align 1 dereferenceable(16) %1, i64 noundef 16, i1 noundef false) #16
  %4 = load ptr, ptr %1, align 8
  %.not = icmp eq ptr %4, null
  br i1 %.not, label %7, label %5

5:                                                ; preds = %3
  %6 = tail call noalias ptr @g_strdup(ptr noundef nonnull %4)
  store ptr %6, ptr %0, align 8
  br label %7

7:                                                ; preds = %5, %3
  ret ptr %0
}